; ModuleID = '16/565.c'
source_filename = "16/565.c"
target datalayout = "e-m:e-p270:32:32-p271:32:32-p272:64:64-i64:64-f80:128-n8:16:32:64-S128"
target triple = "x86_64-pc-linux-gnu"

@.str = private unnamed_addr constant [3 x i8] c"%d\00", align 1
@.str.1 = private unnamed_addr constant [11 x i8] c"%d%d%d%d%d\00", align 1
@.str.2 = private unnamed_addr constant [9 x i8] c"%d%d%d%d\00", align 1
@.str.3 = private unnamed_addr constant [7 x i8] c"%d%d%d\00", align 1
@.str.4 = private unnamed_addr constant [5 x i8] c"%d%d\00", align 1

; Function Attrs: noinline nounwind uwtable
define dso_local i32 @main() #0 {
  %1 = alloca i32, align 4
  %2 = alloca i32, align 4
  %3 = alloca i32, align 4
  %4 = alloca i32, align 4
  %5 = alloca i32, align 4
  %6 = alloca i32, align 4
  %7 = alloca i32, align 4
  %8 = alloca i32, align 4
  store i32 0, i32* %1, align 4
  %9 = call i32 (i8*, ...) @__isoc99_scanf(i8* getelementptr inbounds ([3 x i8], [3 x i8]* @.str, i64 0, i64 0), i32* %2)
  %10 = load i32, i32* %2, align 4
  %11 = sdiv i32 %10, 10000
  store i32 %11, i32* %3, align 4
  %12 = load i32, i32* %2, align 4
  %13 = load i32, i32* %3, align 4
  %14 = mul nsw i32 10000, %13
  %15 = sub nsw i32 %12, %14
  %16 = sdiv i32 %15, 1000
  store i32 %16, i32* %4, align 4
  %17 = load i32, i32* %2, align 4
  %18 = load i32, i32* %3, align 4
  %19 = mul nsw i32 10000, %18
  %20 = sub nsw i32 %17, %19
  %21 = load i32, i32* %4, align 4
  %22 = mul nsw i32 1000, %21
  %23 = sub nsw i32 %20, %22
  %24 = sdiv i32 %23, 100
  store i32 %24, i32* %5, align 4
  %25 = load i32, i32* %2, align 4
  %26 = load i32, i32* %3, align 4
  %27 = mul nsw i32 10000, %26
  %28 = sub nsw i32 %25, %27
  %29 = load i32, i32* %4, align 4
  %30 = mul nsw i32 1000, %29
  %31 = sub nsw i32 %28, %30
  %32 = load i32, i32* %5, align 4
  %33 = mul nsw i32 100, %32
  %34 = sub nsw i32 %31, %33
  %35 = sdiv i32 %34, 10
  store i32 %35, i32* %6, align 4
  %36 = load i32, i32* %2, align 4
  %37 = load i32, i32* %3, align 4
  %38 = mul nsw i32 10000, %37
  %39 = sub nsw i32 %36, %38
  %40 = load i32, i32* %4, align 4
  %41 = mul nsw i32 1000, %40
  %42 = sub nsw i32 %39, %41
  %43 = load i32, i32* %5, align 4
  %44 = mul nsw i32 100, %43
  %45 = sub nsw i32 %42, %44
  %46 = load i32, i32* %6, align 4
  %47 = mul nsw i32 10, %46
  %48 = sub nsw i32 %45, %47
  store i32 %48, i32* %7, align 4
  %49 = load i32, i32* %3, align 4
  %50 = icmp ne i32 %49, 0
  br i1 %50, label %51, label %64

51:                                               ; preds = %0
  %52 = load i32, i32* %7, align 4
  store i32 %52, i32* %8, align 4
  %53 = load i32, i32* %3, align 4
  store i32 %53, i32* %7, align 4
  %54 = load i32, i32* %8, align 4
  store i32 %54, i32* %3, align 4
  %55 = load i32, i32* %6, align 4
  store i32 %55, i32* %8, align 4
  %56 = load i32, i32* %4, align 4
  store i32 %56, i32* %6, align 4
  %57 = load i32, i32* %8, align 4
  store i32 %57, i32* %4, align 4
  %58 = load i32, i32* %3, align 4
  %59 = load i32, i32* %4, align 4
  %60 = load i32, i32* %5, align 4
  %61 = load i32, i32* %6, align 4
  %62 = load i32, i32* %7, align 4
  %63 = call i32 (i8*, ...) @printf(i8* getelementptr inbounds ([11 x i8], [11 x i8]* @.str.1, i64 0, i64 0), i32 %58, i32 %59, i32 %60, i32 %61, i32 %62)
  br label %106

64:                                               ; preds = %0
  %65 = load i32, i32* %4, align 4
  %66 = icmp ne i32 %65, 0
  br i1 %66, label %67, label %79

67:                                               ; preds = %64
  %68 = load i32, i32* %7, align 4
  store i32 %68, i32* %8, align 4
  %69 = load i32, i32* %4, align 4
  store i32 %69, i32* %7, align 4
  %70 = load i32, i32* %8, align 4
  store i32 %70, i32* %4, align 4
  %71 = load i32, i32* %6, align 4
  store i32 %71, i32* %8, align 4
  %72 = load i32, i32* %5, align 4
  store i32 %72, i32* %6, align 4
  %73 = load i32, i32* %8, align 4
  store i32 %73, i32* %5, align 4
  %74 = load i32, i32* %4, align 4
  %75 = load i32, i32* %5, align 4
  %76 = load i32, i32* %6, align 4
  %77 = load i32, i32* %7, align 4
  %78 = call i32 (i8*, ...) @printf(i8* getelementptr inbounds ([9 x i8], [9 x i8]* @.str.2, i64 0, i64 0), i32 %74, i32 %75, i32 %76, i32 %77)
  br label %105

79:                                               ; preds = %64
  %80 = load i32, i32* %5, align 4
  %81 = icmp ne i32 %80, 0
  br i1 %81, label %82, label %90

82:                                               ; preds = %79
  %83 = load i32, i32* %7, align 4
  store i32 %83, i32* %8, align 4
  %84 = load i32, i32* %5, align 4
  store i32 %84, i32* %7, align 4
  %85 = load i32, i32* %8, align 4
  store i32 %85, i32* %5, align 4
  %86 = load i32, i32* %5, align 4
  %87 = load i32, i32* %6, align 4
  %88 = load i32, i32* %7, align 4
  %89 = call i32 (i8*, ...) @printf(i8* getelementptr inbounds ([7 x i8], [7 x i8]* @.str.3, i64 0, i64 0), i32 %86, i32 %87, i32 %88)
  br label %104

90:                                               ; preds = %79
  %91 = load i32, i32* %6, align 4
  %92 = icmp ne i32 %91, 0
  br i1 %92, label %93, label %100

93:                                               ; preds = %90
  %94 = load i32, i32* %7, align 4
  store i32 %94, i32* %8, align 4
  %95 = load i32, i32* %6, align 4
  store i32 %95, i32* %7, align 4
  %96 = load i32, i32* %8, align 4
  store i32 %96, i32* %6, align 4
  %97 = load i32, i32* %6, align 4
  %98 = load i32, i32* %7, align 4
  %99 = call i32 (i8*, ...) @printf(i8* getelementptr inbounds ([5 x i8], [5 x i8]* @.str.4, i64 0, i64 0), i32 %97, i32 %98)
  br label %103

100:                                              ; preds = %90
  %101 = load i32, i32* %7, align 4
  %102 = call i32 (i8*, ...) @printf(i8* getelementptr inbounds ([3 x i8], [3 x i8]* @.str, i64 0, i64 0), i32 %101)
  br label %103

103:                                              ; preds = %100, %93
  br label %104

104:                                              ; preds = %103, %82
  br label %105

105:                                              ; preds = %104, %67
  br label %106

106:                                              ; preds = %105, %51
  ret i32 0
}

declare dso_local i32 @__isoc99_scanf(i8*, ...) #1

declare dso_local i32 @printf(i8*, ...) #1


!llvm.module.flags = !{!0}
!llvm.ident = !{!1}

!0 = !{i32 1, !"wchar_size", i32 4}
!1 = !{!"clang version 10.0.0-4ubuntu1 "}
